; Function Attrs: nounwind uwtable
define void @Bbr_bddImageTreeDelete2(ptr noundef captures(none) %0) local_unnamed_addr #0 {
  %2 = getelementptr inbounds nuw i8, ptr %0, i64 8
  %3 = load ptr, ptr %2, align 8, !tbaa !96
  %.not = icmp eq ptr %3, null
  br i1 %.not, label %6, label %4

4:                                                ; preds = %1
  %5 = load ptr, ptr %0, align 8, !tbaa !92
  tail call void @Cudd_RecursiveDeref(ptr noundef %5, ptr noundef nonnull %3) #11
  br label %6

6:                                                ; preds = %4, %1
  %7 = getelementptr inbounds nuw i8, ptr %0, i64 16
  %8 = load ptr, ptr %7, align 8, !tbaa !95
  %.not14 = icmp eq ptr %8, null
  br i1 %.not14, label %11, label %9

9:                                                ; preds = %6
  %10 = load ptr, ptr %0, align 8, !tbaa !92
  tail call void @Cudd_RecursiveDeref(ptr noundef %10, ptr noundef nonnull %8) #11
  br label %11

11:                                               ; preds = %9, %6
  %12 = getelementptr inbounds nuw i8, ptr %0, i64 24
  %13 = load ptr, ptr %12, align 8, !tbaa !94
  %.not15 = icmp eq ptr %13, null
  br i1 %.not15, label %16, label %14

14:                                               ; preds = %11
  %15 = load ptr, ptr %0, align 8, !tbaa !92
  tail call void @Cudd_RecursiveDeref(ptr noundef %15, ptr noundef nonnull %13) #11
  br label %16

16:                                               ; preds = %14, %11
  tail call void @free(ptr noundef nonnull %0) #11
  ret void
}